target datalayout = "e-m:e-p270:32:32-p271:32:32-p272:64:64-i64:64-i128:128-f80:128-n8:16:32:64-S128"
target triple = "x86_64-pc-linux-gnu"

%struct.AVProbeData = type { ptr, ptr, i32, ptr }

@.str.3 = private unnamed_addr constant [12 x i8] c"FORMAT=TIME\00", align 1
@.str.4 = private unnamed_addr constant [8 x i8] c"FORMAT=\00", align 1
@.str.5 = private unnamed_addr constant [3 x i8] c"\0D\0A\00", align 1

; Function Attrs: alwaysinline nounwind uwtable
define internal i32 @ff_subtitles_next_line(ptr noundef %0) #4 {
  %2 = alloca ptr, align 8
  %3 = alloca i32, align 4
  store ptr %0, ptr %2, align 8, !tbaa !13
  call void @llvm.lifetime.start.p0(i64 4, ptr %3) #9
  %4 = load ptr, ptr %2, align 8, !tbaa !13
  %5 = call i64 @strcspn(ptr noundef %4, ptr noundef @.str.5) #10
  %6 = trunc i64 %5 to i32
  store i32 %6, ptr %3, align 4, !tbaa !15
  %7 = load i32, ptr %3, align 4, !tbaa !15
  %8 = load ptr, ptr %2, align 8, !tbaa !13
  %9 = sext i32 %7 to i64
  %10 = getelementptr inbounds i8, ptr %8, i64 %9
  store ptr %10, ptr %2, align 8, !tbaa !13
  br label %11

11:                                               ; preds = %16, %1
  %12 = load ptr, ptr %2, align 8, !tbaa !13
  %13 = load i8, ptr %12, align 1, !tbaa !38
  %14 = sext i8 %13 to i32
  %15 = icmp eq i32 %14, 13
  br i1 %15, label %16, label %21

16:                                               ; preds = %11
  %17 = load ptr, ptr %2, align 8, !tbaa !13
  %18 = getelementptr inbounds nuw i8, ptr %17, i32 1
  store ptr %18, ptr %2, align 8, !tbaa !13
  %19 = load i32, ptr %3, align 4, !tbaa !15
  %20 = add nsw i32 %19, 1
  store i32 %20, ptr %3, align 4, !tbaa !15
  br label %11, !llvm.loop !69

21:                                               ; preds = %11
  %22 = load ptr, ptr %2, align 8, !tbaa !13
  %23 = load i8, ptr %22, align 1, !tbaa !38
  %24 = sext i8 %23 to i32
  %25 = icmp eq i32 %24, 10
  br i1 %25, label %26, label %29

26:                                               ; preds = %21
  %27 = load i32, ptr %3, align 4, !tbaa !15
  %28 = add nsw i32 %27, 1
  store i32 %28, ptr %3, align 4, !tbaa !15
  br label %29

29:                                               ; preds = %26, %21
  %30 = load i32, ptr %3, align 4, !tbaa !15
  call void @llvm.lifetime.end.p0(i64 4, ptr %3) #9
  ret i32 %30
}

; Function Attrs: nounwind uwtable
define internal i32 @mpsub_probe(ptr noundef %0) #0 {
  %2 = alloca i32, align 4
  %3 = alloca ptr, align 8
  %4 = alloca ptr, align 8
  %5 = alloca ptr, align 8
  %6 = alloca i32, align 4
  %7 = alloca i32, align 4
  store ptr %0, ptr %3, align 8, !tbaa !4
  call void @llvm.lifetime.start.p0(i64 8, ptr %4) #9
  %8 = load ptr, ptr %3, align 8, !tbaa !4
  %9 = getelementptr inbounds nuw %struct.AVProbeData, ptr %8, i32 0, i32 1
  %10 = load ptr, ptr %9, align 8, !tbaa !9
  store ptr %10, ptr %4, align 8, !tbaa !13
  call void @llvm.lifetime.start.p0(i64 8, ptr %5) #9
  %11 = load ptr, ptr %3, align 8, !tbaa !4
  %12 = getelementptr inbounds nuw %struct.AVProbeData, ptr %11, i32 0, i32 1
  %13 = load ptr, ptr %12, align 8, !tbaa !9
  %14 = load ptr, ptr %3, align 8, !tbaa !4
  %15 = getelementptr inbounds nuw %struct.AVProbeData, ptr %14, i32 0, i32 2
  %16 = load i32, ptr %15, align 8, !tbaa !14
  %17 = sext i32 %16 to i64
  %18 = getelementptr inbounds i8, ptr %13, i64 %17
  store ptr %18, ptr %5, align 8, !tbaa !13
  br label %19

19:                                               ; preds = %46, %1
  %20 = load ptr, ptr %4, align 8, !tbaa !13
  %21 = load ptr, ptr %5, align 8, !tbaa !13
  %22 = icmp ult ptr %20, %21
  br i1 %22, label %23, label %47

23:                                               ; preds = %19
  call void @llvm.lifetime.start.p0(i64 4, ptr %6) #9
  %24 = load ptr, ptr %4, align 8, !tbaa !13
  %25 = call i32 @memcmp(ptr noundef %24, ptr noundef @.str.3, i64 noundef 11) #10
  %26 = icmp ne i32 %25, 0
  br i1 %26, label %28, label %27

27:                                               ; preds = %23
  store i32 50, ptr %2, align 4
  store i32 1, ptr %7, align 4
  br label %44

28:                                               ; preds = %23
  %29 = load ptr, ptr %4, align 8, !tbaa !13
  %30 = call i32 @memcmp(ptr noundef %29, ptr noundef @.str.4, i64 noundef 7) #10
  %31 = icmp ne i32 %30, 0
  br i1 %31, label %33, label %32

32:                                               ; preds = %28
  store i32 16, ptr %2, align 4
  store i32 1, ptr %7, align 4
  br label %44

33:                                               ; preds = %28
  %34 = load ptr, ptr %4, align 8, !tbaa !13
  %35 = call i32 @ff_subtitles_next_line(ptr noundef %34)
  store i32 %35, ptr %6, align 4, !tbaa !15
  %36 = load i32, ptr %6, align 4, !tbaa !15
  %37 = icmp ne i32 %36, 0
  br i1 %37, label %39, label %38

38:                                               ; preds = %33
  store i32 3, ptr %7, align 4
  br label %44

39:                                               ; preds = %33
  %40 = load i32, ptr %6, align 4, !tbaa !15
  %41 = load ptr, ptr %4, align 8, !tbaa !13
  %42 = sext i32 %40 to i64
  %43 = getelementptr inbounds i8, ptr %41, i64 %42
  store ptr %43, ptr %4, align 8, !tbaa !13
  store i32 0, ptr %7, align 4
  br label %44

44:                                               ; preds = %39, %38, %32, %27
  call void @llvm.lifetime.end.p0(i64 4, ptr %6) #9
  %45 = load i32, ptr %7, align 4
  switch i32 %45, label %48 [
    i32 0, label %46
    i32 3, label %47
  ]

46:                                               ; preds = %44
  br label %19, !llvm.loop !16

47:                                               ; preds = %44, %19
  store i32 0, ptr %2, align 4
  store i32 1, ptr %7, align 4
  br label %48

48:                                               ; preds = %47, %44
  call void @llvm.lifetime.end.p0(i64 8, ptr %5) #9
  call void @llvm.lifetime.end.p0(i64 8, ptr %4) #9
  %49 = load i32, ptr %2, align 4
  ret i32 %49
}