; Function Attrs: nofree norecurse nounwind memory(read, inaccessiblemem: none) uwtable
define internal range(i32 0, 51) i32 @mpsub_probe(ptr noundef readonly captures(none) %0) #0 {
  %2 = getelementptr inbounds nuw i8, ptr %0, i64 8
  %3 = load ptr, ptr %2, align 8, !tbaa !4
  %4 = getelementptr inbounds nuw i8, ptr %0, i64 16
  %5 = load i32, ptr %4, align 8, !tbaa !11
  %6 = sext i32 %5 to i64
  %7 = getelementptr inbounds i8, ptr %3, i64 %6
  %8 = icmp sgt i32 %5, 0
  br i1 %8, label %.lr.ph, label %.thread22

.lr.ph:                                           ; preds = %1, %ff_subtitles_next_line.exit
  %.01327 = phi ptr [ %23, %ff_subtitles_next_line.exit ], [ %3, %1 ]
  %bcmp = tail call i32 @bcmp(ptr noundef nonnull dereferenceable(11) %.01327, ptr noundef nonnull dereferenceable(11) @.str.3, i64 11)
  %.not = icmp eq i32 %bcmp, 0
  br i1 %.not, label %.thread22, label %9

9:                                                ; preds = %.lr.ph
  %bcmp16 = tail call i32 @bcmp(ptr noundef nonnull dereferenceable(7) %.01327, ptr noundef nonnull dereferenceable(7) @.str.4, i64 7)
  %.not17 = icmp eq i32 %bcmp16, 0
  br i1 %.not17, label %.thread22, label %10

10:                                               ; preds = %9
  %11 = tail call i64 @strcspn(ptr noundef nonnull %.01327, ptr noundef nonnull @.str.5) #9
  %12 = trunc i64 %11 to i32
  %sext.i = shl i64 %11, 32
  %13 = ashr exact i64 %sext.i, 32
  %14 = getelementptr inbounds i8, ptr %.01327, i64 %13
  br label %15

15:                                               ; preds = %17, %10
  %.08.i = phi ptr [ %14, %10 ], [ %18, %17 ]
  %.0.i = phi i32 [ %12, %10 ], [ %19, %17 ]
  %16 = load i8, ptr %.08.i, align 1, !tbaa !12
  switch i8 %16, label %ff_subtitles_next_line.exit [
    i8 13, label %17
    i8 10, label %20
  ]

17:                                               ; preds = %15
  %18 = getelementptr inbounds nuw i8, ptr %.08.i, i64 1
  %19 = add nsw i32 %.0.i, 1
  br label %15, !llvm.loop !13

20:                                               ; preds = %15
  %21 = add nsw i32 %.0.i, 1
  br label %ff_subtitles_next_line.exit

ff_subtitles_next_line.exit:                      ; preds = %15, %20
  %.1.i = phi i32 [ %21, %20 ], [ %.0.i, %15 ]
  %.not18 = icmp ne i32 %.1.i, 0
  %22 = sext i32 %.1.i to i64
  %23 = getelementptr inbounds i8, ptr %.01327, i64 %22
  %24 = icmp ult ptr %23, %7
  %or.cond = select i1 %.not18, i1 %24, i1 false
  br i1 %or.cond, label %.lr.ph, label %.thread22

.thread22:                                        ; preds = %ff_subtitles_next_line.exit, %.lr.ph, %9, %1
  %.2 = phi i32 [ 0, %1 ], [ 16, %9 ], [ 50, %.lr.ph ], [ 0, %ff_subtitles_next_line.exit ]
  ret i32 %.2
}